target datalayout = "e-m:e-p270:32:32-p271:32:32-p272:64:64-i64:64-i128:128-f80:128-n8:16:32:64-S128"
target triple = "x86_64-pc-linux-gnu"

%struct.jpeg_decompress_struct = type { ptr, ptr, ptr, ptr, i32, i32, ptr, i32, i32, i32, i32, i32, i32, i32, double, i32, i32, i32, i32, i32, i32, i32, i32, i32, i32, i32, i32, i32, i32, i32, i32, i32, i32, ptr, i32, i32, i32, i32, i32, ptr, [4 x ptr], [4 x ptr], [4 x ptr], i32, ptr, i32, i32, [16 x i8], [16 x i8], [16 x i8], i32, i32, i8, i8, i8, i16, i16, i32, i8, i32, ptr, i32, i32, i32, i32, ptr, i32, [4 x ptr], i32, i32, i32, [10 x i32], i32, i32, i32, i32, i32, ptr, ptr, ptr, ptr, ptr, ptr, ptr, ptr, ptr, ptr, ptr }
%struct.jpeg_error_mgr = type { ptr, ptr, ptr, ptr, ptr, i32, %union.anon, i32, i64, ptr, i32, ptr, i32, i32 }
%union.anon = type { [8 x i32], [48 x i8] }
%struct.jpeg_marker_reader = type { ptr, ptr, ptr, i32, i32, i32, i32 }
%struct.my_marker_reader = type { %struct.jpeg_marker_reader, ptr, [16 x ptr], i32, [16 x i32], ptr, i32 }

; Function Attrs: nounwind uwtable
define void @jpeg_set_marker_processor(ptr noundef %0, i32 noundef %1, ptr noundef %2) #0 {
  %4 = alloca ptr, align 8
  %5 = alloca i32, align 4
  %6 = alloca ptr, align 8
  %7 = alloca ptr, align 8
  store ptr %0, ptr %4, align 8, !tbaa !3
  store i32 %1, ptr %5, align 4, !tbaa !8
  store ptr %2, ptr %6, align 8, !tbaa !56
  call void @llvm.lifetime.start.p0(i64 8, ptr %7) #5
  %8 = load ptr, ptr %4, align 8, !tbaa !3
  %9 = getelementptr inbounds nuw %struct.jpeg_decompress_struct, ptr %8, i32 0, i32 82
  %10 = load ptr, ptr %9, align 8, !tbaa !47
  store ptr %10, ptr %7, align 8, !tbaa !56
  %11 = load i32, ptr %5, align 4, !tbaa !8
  %12 = icmp eq i32 %11, 254
  br i1 %12, label %13, label %17

13:                                               ; preds = %3
  %14 = load ptr, ptr %6, align 8, !tbaa !56
  %15 = load ptr, ptr %7, align 8, !tbaa !56
  %16 = getelementptr inbounds nuw %struct.my_marker_reader, ptr %15, i32 0, i32 1
  store ptr %14, ptr %16, align 8, !tbaa !61
  br label %49

17:                                               ; preds = %3
  %18 = load i32, ptr %5, align 4, !tbaa !8
  %19 = icmp sge i32 %18, 224
  br i1 %19, label %20, label %31

20:                                               ; preds = %17
  %21 = load i32, ptr %5, align 4, !tbaa !8
  %22 = icmp sle i32 %21, 239
  br i1 %22, label %23, label %31

23:                                               ; preds = %20
  %24 = load ptr, ptr %6, align 8, !tbaa !56
  %25 = load ptr, ptr %7, align 8, !tbaa !56
  %26 = getelementptr inbounds nuw %struct.my_marker_reader, ptr %25, i32 0, i32 2
  %27 = load i32, ptr %5, align 4, !tbaa !8
  %28 = sub nsw i32 %27, 224
  %29 = sext i32 %28 to i64
  %30 = getelementptr inbounds [16 x ptr], ptr %26, i64 0, i64 %29
  store ptr %24, ptr %30, align 8, !tbaa !56
  br label %48

31:                                               ; preds = %20, %17
  %32 = load ptr, ptr %4, align 8, !tbaa !3
  %33 = getelementptr inbounds nuw %struct.jpeg_decompress_struct, ptr %32, i32 0, i32 0
  %34 = load ptr, ptr %33, align 8, !tbaa !33
  %35 = getelementptr inbounds nuw %struct.jpeg_error_mgr, ptr %34, i32 0, i32 5
  store i32 68, ptr %35, align 8, !tbaa !34
  %36 = load i32, ptr %5, align 4, !tbaa !8
  %37 = load ptr, ptr %4, align 8, !tbaa !3
  %38 = getelementptr inbounds nuw %struct.jpeg_decompress_struct, ptr %37, i32 0, i32 0
  %39 = load ptr, ptr %38, align 8, !tbaa !33
  %40 = getelementptr inbounds nuw %struct.jpeg_error_mgr, ptr %39, i32 0, i32 6
  %41 = getelementptr inbounds [8 x i32], ptr %40, i64 0, i64 0
  store i32 %36, ptr %41, align 4, !tbaa !37
  %42 = load ptr, ptr %4, align 8, !tbaa !3
  %43 = getelementptr inbounds nuw %struct.jpeg_decompress_struct, ptr %42, i32 0, i32 0
  %44 = load ptr, ptr %43, align 8, !tbaa !33
  %45 = getelementptr inbounds nuw %struct.jpeg_error_mgr, ptr %44, i32 0, i32 0
  %46 = load ptr, ptr %45, align 8, !tbaa !71
  %47 = load ptr, ptr %4, align 8, !tbaa !3
  call void %46(ptr noundef %47)
  br label %48

48:                                               ; preds = %31, %23
  br label %49

49:                                               ; preds = %48, %13
  call void @llvm.lifetime.end.p0(i64 8, ptr %7) #5
  ret void
}