; Function Attrs: nounwind uwtable
define void @jpeg_set_marker_processor(ptr noundef %0, i32 noundef %1, ptr noundef %2) local_unnamed_addr #0 {
  %4 = getelementptr inbounds nuw i8, ptr %0, i64 584
  %5 = load ptr, ptr %4, align 8, !tbaa !41
  %6 = icmp eq i32 %1, 254
  br i1 %6, label %7, label %9

7:                                                ; preds = %3
  %8 = getelementptr inbounds nuw i8, ptr %5, i64 40
  store ptr %2, ptr %8, align 8, !tbaa !53
  br label %22

9:                                                ; preds = %3
  %10 = and i32 %1, -16
  %or.cond = icmp eq i32 %10, 224
  br i1 %or.cond, label %11, label %16

11:                                               ; preds = %9
  %12 = getelementptr inbounds nuw i8, ptr %5, i64 48
  %13 = add nsw i32 %1, -224
  %14 = zext nneg i32 %13 to i64
  %15 = getelementptr inbounds nuw [16 x ptr], ptr %12, i64 0, i64 %14
  store ptr %2, ptr %15, align 8, !tbaa !55
  br label %22

16:                                               ; preds = %9
  %17 = load ptr, ptr %0, align 8, !tbaa !30
  %18 = getelementptr inbounds nuw i8, ptr %17, i64 40
  store i32 68, ptr %18, align 8, !tbaa !31
  %19 = getelementptr inbounds nuw i8, ptr %17, i64 44
  store i32 %1, ptr %19, align 4, !tbaa !34
  %20 = load ptr, ptr %0, align 8, !tbaa !30
  %21 = load ptr, ptr %20, align 8, !tbaa !65
  tail call void %21(ptr noundef nonnull %0) #7
  br label %22

22:                                               ; preds = %11, %16, %7
  ret void
}